target datalayout = "e-m:e-p270:32:32-p271:32:32-p272:64:64-i64:64-i128:128-f80:128-n8:16:32:64-S128"
target triple = "x86_64-pc-linux-gnu"

%struct.SDL_Property = type { i32, %union.anon, ptr, ptr, ptr }
%union.anon = type { ptr }

; Function Attrs: nounwind uwtable
define hidden zeroext i1 @SDL_SetBooleanProperty_REAL(i32 noundef %0, ptr noundef %1, i1 noundef zeroext %2) #0 {
  %4 = alloca i1, align 1
  %5 = alloca i32, align 4
  %6 = alloca ptr, align 8
  %7 = alloca i8, align 1
  %8 = alloca ptr, align 8
  %9 = alloca i32, align 4
  store i32 %0, ptr %5, align 4
  store ptr %1, ptr %6, align 8
  %10 = zext i1 %2 to i8
  store i8 %10, ptr %7, align 1
  call void @llvm.lifetime.start.p0(i64 8, ptr %8) #6
  %11 = call noalias ptr @SDL_calloc_REAL(i64 noundef 1, i64 noundef 40) #7
  store ptr %11, ptr %8, align 8
  %12 = load ptr, ptr %8, align 8
  %13 = icmp ne ptr %12, null
  br i1 %13, label %15, label %14

14:                                               ; preds = %3
  store i1 false, ptr %4, align 1
  store i32 1, ptr %9, align 4
  br label %29

15:                                               ; preds = %3
  %16 = load ptr, ptr %8, align 8
  %17 = getelementptr inbounds nuw %struct.SDL_Property, ptr %16, i32 0, i32 0
  store i32 5, ptr %17, align 8
  %18 = load i8, ptr %7, align 1, !range !3, !noundef !4
  %19 = trunc i8 %18 to i1
  %20 = select i1 %19, i32 1, i32 0
  %21 = icmp ne i32 %20, 0
  %22 = load ptr, ptr %8, align 8
  %23 = getelementptr inbounds nuw %struct.SDL_Property, ptr %22, i32 0, i32 1
  %24 = zext i1 %21 to i8
  store i8 %24, ptr %23, align 8
  %25 = load i32, ptr %5, align 4
  %26 = load ptr, ptr %6, align 8
  %27 = load ptr, ptr %8, align 8
  %28 = call zeroext i1 @SDL_PrivateSetProperty(i32 noundef %25, ptr noundef %26, ptr noundef %27)
  store i1 %28, ptr %4, align 1
  store i32 1, ptr %9, align 4
  br label %29

29:                                               ; preds = %15, %14
  call void @llvm.lifetime.end.p0(i64 8, ptr %8) #6
  %30 = load i1, ptr %4, align 1
  ret i1 %30
}