; Function Attrs: nounwind uwtable
define hidden zeroext i1 @SDL_SetBooleanProperty_REAL(i32 noundef %0, ptr noundef %1, i1 noundef zeroext %2) local_unnamed_addr #0 {
  %4 = tail call noalias dereferenceable_or_null(40) ptr @SDL_calloc_REAL(i64 noundef 1, i64 noundef 40) #7
  %.not = icmp eq ptr %4, null
  br i1 %.not, label %9, label %5

5:                                                ; preds = %3
  %6 = zext i1 %2 to i8
  store i32 5, ptr %4, align 8
  %7 = getelementptr inbounds nuw i8, ptr %4, i64 8
  store i8 %6, ptr %7, align 8
  %8 = tail call fastcc zeroext i1 @SDL_PrivateSetProperty(i32 noundef %0, ptr noundef %1, ptr noundef nonnull %4)
  br label %9

9:                                                ; preds = %3, %5
  %.0 = phi i1 [ %8, %5 ], [ false, %3 ]
  ret i1 %.0
}